; ModuleID = '24/2197.c'
source_filename = "24/2197.c"
target datalayout = "e-m:e-p270:32:32-p271:32:32-p272:64:64-i64:64-f80:128-n8:16:32:64-S128"
target triple = "x86_64-pc-linux-gnu"

@.str = private unnamed_addr constant [4 x i8] c"%s\0A\00", align 1

; Function Attrs: noinline nounwind uwtable
define dso_local void @main() #0 {
  %1 = alloca [5000 x i8], align 16
  %2 = alloca [200 x [25 x i8]], align 16
  %3 = alloca i32, align 4
  %4 = alloca i32, align 4
  %5 = alloca i32, align 4
  %6 = alloca i32, align 4
  %7 = alloca [200 x i32], align 16
  %8 = bitcast [200 x [25 x i8]]* %2 to i8*
  call void @llvm.memset.p0i8.i64(i8* align 16 %8, i8 0, i64 5000, i1 false)
  %9 = bitcast i8* %8 to <{ [25 x i8], [199 x [25 x i8]] }>*
  %10 = getelementptr inbounds <{ [25 x i8], [199 x [25 x i8]] }>, <{ [25 x i8], [199 x [25 x i8]] }>* %9, i32 0, i32 0
  %11 = getelementptr inbounds [25 x i8], [25 x i8]* %10, i32 0, i32 0
  store i8 48, i8* %11, align 16
  %12 = bitcast [200 x i32]* %7 to i8*
  call void @llvm.memset.p0i8.i64(i8* align 16 %12, i8 0, i64 800, i1 false)
  %13 = getelementptr inbounds [5000 x i8], [5000 x i8]* %1, i64 0, i64 0
  %14 = call i32 (i8*, ...) bitcast (i32 (...)* @gets to i32 (i8*, ...)*)(i8* %13)
  %15 = getelementptr inbounds [5000 x i8], [5000 x i8]* %1, i64 0, i64 0
  %16 = call i64 @strlen(i8* %15) #4
  %17 = trunc i64 %16 to i32
  store i32 %17, i32* %6, align 4
  store i32 0, i32* %5, align 4
  store i32 0, i32* %3, align 4
  br label %18

18:                                               ; preds = %77, %0
  %19 = load i32, i32* %3, align 4
  %20 = icmp slt i32 %19, 200
  br i1 %20, label %21, label %80

21:                                               ; preds = %18
  store i32 0, i32* %4, align 4
  br label %22

22:                                               ; preds = %73, %21
  %23 = load i32, i32* %5, align 4
  %24 = load i32, i32* %6, align 4
  %25 = icmp slt i32 %23, %24
  br i1 %25, label %26, label %76

26:                                               ; preds = %22
  %27 = load i32, i32* %5, align 4
  %28 = sext i32 %27 to i64
  %29 = getelementptr inbounds [5000 x i8], [5000 x i8]* %1, i64 0, i64 %28
  %30 = load i8, i8* %29, align 1
  %31 = sext i8 %30 to i32
  %32 = icmp eq i32 %31, 32
  br i1 %32, label %33, label %42

33:                                               ; preds = %26
  %34 = load i32, i32* %5, align 4
  %35 = add nsw i32 %34, 1
  store i32 %35, i32* %5, align 4
  %36 = load i32, i32* %3, align 4
  %37 = sext i32 %36 to i64
  %38 = getelementptr inbounds [200 x [25 x i8]], [200 x [25 x i8]]* %2, i64 0, i64 %37
  %39 = load i32, i32* %4, align 4
  %40 = sext i32 %39 to i64
  %41 = getelementptr inbounds [25 x i8], [25 x i8]* %38, i64 0, i64 %40
  store i8 0, i8* %41, align 1
  br label %76

42:                                               ; preds = %26
  %43 = load i32, i32* %5, align 4
  %44 = sext i32 %43 to i64
  %45 = getelementptr inbounds [5000 x i8], [5000 x i8]* %1, i64 0, i64 %44
  %46 = load i8, i8* %45, align 1
  %47 = sext i8 %46 to i32
  %48 = icmp eq i32 %47, 44
  br i1 %48, label %49, label %58

49:                                               ; preds = %42
  %50 = load i32, i32* %5, align 4
  %51 = add nsw i32 %50, 2
  store i32 %51, i32* %5, align 4
  %52 = load i32, i32* %3, align 4
  %53 = sext i32 %52 to i64
  %54 = getelementptr inbounds [200 x [25 x i8]], [200 x [25 x i8]]* %2, i64 0, i64 %53
  %55 = load i32, i32* %4, align 4
  %56 = sext i32 %55 to i64
  %57 = getelementptr inbounds [25 x i8], [25 x i8]* %54, i64 0, i64 %56
  store i8 0, i8* %57, align 1
  br label %76

58:                                               ; preds = %42
  %59 = load i32, i32* %5, align 4
  %60 = sext i32 %59 to i64
  %61 = getelementptr inbounds [5000 x i8], [5000 x i8]* %1, i64 0, i64 %60
  %62 = load i8, i8* %61, align 1
  %63 = load i32, i32* %3, align 4
  %64 = sext i32 %63 to i64
  %65 = getelementptr inbounds [200 x [25 x i8]], [200 x [25 x i8]]* %2, i64 0, i64 %64
  %66 = load i32, i32* %4, align 4
  %67 = sext i32 %66 to i64
  %68 = getelementptr inbounds [25 x i8], [25 x i8]* %65, i64 0, i64 %67
  store i8 %62, i8* %68, align 1
  br label %69

69:                                               ; preds = %58
  br label %70

70:                                               ; preds = %69
  %71 = load i32, i32* %5, align 4
  %72 = add nsw i32 %71, 1
  store i32 %72, i32* %5, align 4
  br label %73

73:                                               ; preds = %70
  %74 = load i32, i32* %4, align 4
  %75 = add nsw i32 %74, 1
  store i32 %75, i32* %4, align 4
  br label %22

76:                                               ; preds = %49, %33, %22
  br label %77

77:                                               ; preds = %76
  %78 = load i32, i32* %3, align 4
  %79 = add nsw i32 %78, 1
  store i32 %79, i32* %3, align 4
  br label %18

80:                                               ; preds = %18
  store i32 0, i32* %3, align 4
  br label %81

81:                                               ; preds = %99, %80
  %82 = load i32, i32* %3, align 4
  %83 = sext i32 %82 to i64
  %84 = getelementptr inbounds [200 x [25 x i8]], [200 x [25 x i8]]* %2, i64 0, i64 %83
  %85 = getelementptr inbounds [25 x i8], [25 x i8]* %84, i64 0, i64 0
  %86 = load i8, i8* %85, align 1
  %87 = sext i8 %86 to i32
  %88 = icmp ne i32 %87, 0
  br i1 %88, label %89, label %102

89:                                               ; preds = %81
  %90 = load i32, i32* %3, align 4
  %91 = sext i32 %90 to i64
  %92 = getelementptr inbounds [200 x [25 x i8]], [200 x [25 x i8]]* %2, i64 0, i64 %91
  %93 = getelementptr inbounds [25 x i8], [25 x i8]* %92, i64 0, i64 0
  %94 = call i64 @strlen(i8* %93) #4
  %95 = trunc i64 %94 to i32
  %96 = load i32, i32* %3, align 4
  %97 = sext i32 %96 to i64
  %98 = getelementptr inbounds [200 x i32], [200 x i32]* %7, i64 0, i64 %97
  store i32 %95, i32* %98, align 4
  br label %99

99:                                               ; preds = %89
  %100 = load i32, i32* %3, align 4
  %101 = add nsw i32 %100, 1
  store i32 %101, i32* %3, align 4
  br label %81

102:                                              ; preds = %81
  store i32 0, i32* %3, align 4
  br label %103

103:                                              ; preds = %140, %102
  %104 = load i32, i32* %3, align 4
  %105 = add nsw i32 %104, 1
  %106 = sext i32 %105 to i64
  %107 = getelementptr inbounds [200 x i32], [200 x i32]* %7, i64 0, i64 %106
  %108 = load i32, i32* %107, align 4
  %109 = icmp ne i32 %108, 0
  br i1 %109, label %110, label %143

110:                                              ; preds = %103
  %111 = load i32, i32* %3, align 4
  %112 = sext i32 %111 to i64
  %113 = getelementptr inbounds [200 x i32], [200 x i32]* %7, i64 0, i64 %112
  %114 = load i32, i32* %113, align 4
  %115 = load i32, i32* %3, align 4
  %116 = add nsw i32 %115, 1
  %117 = sext i32 %116 to i64
  %118 = getelementptr inbounds [200 x i32], [200 x i32]* %7, i64 0, i64 %117
  %119 = load i32, i32* %118, align 4
  %120 = icmp sgt i32 %114, %119
  br i1 %120, label %121, label %139

121:                                              ; preds = %110
  %122 = load i32, i32* %3, align 4
  %123 = sext i32 %122 to i64
  %124 = getelementptr inbounds [200 x i32], [200 x i32]* %7, i64 0, i64 %123
  %125 = load i32, i32* %124, align 4
  store i32 %125, i32* %6, align 4
  %126 = load i32, i32* %3, align 4
  %127 = add nsw i32 %126, 1
  %128 = sext i32 %127 to i64
  %129 = getelementptr inbounds [200 x i32], [200 x i32]* %7, i64 0, i64 %128
  %130 = load i32, i32* %129, align 4
  %131 = load i32, i32* %3, align 4
  %132 = sext i32 %131 to i64
  %133 = getelementptr inbounds [200 x i32], [200 x i32]* %7, i64 0, i64 %132
  store i32 %130, i32* %133, align 4
  %134 = load i32, i32* %6, align 4
  %135 = load i32, i32* %3, align 4
  %136 = add nsw i32 %135, 1
  %137 = sext i32 %136 to i64
  %138 = getelementptr inbounds [200 x i32], [200 x i32]* %7, i64 0, i64 %137
  store i32 %134, i32* %138, align 4
  br label %139

139:                                              ; preds = %121, %110
  br label %140

140:                                              ; preds = %139
  %141 = load i32, i32* %3, align 4
  %142 = add nsw i32 %141, 1
  store i32 %142, i32* %3, align 4
  br label %103

143:                                              ; preds = %103
  store i32 0, i32* %4, align 4
  br label %144

144:                                              ; preds = %164, %143
  %145 = load i32, i32* %4, align 4
  %146 = sext i32 %145 to i64
  %147 = getelementptr inbounds [200 x [25 x i8]], [200 x [25 x i8]]* %2, i64 0, i64 %146
  %148 = getelementptr inbounds [25 x i8], [25 x i8]* %147, i64 0, i64 0
  %149 = call i64 @strlen(i8* %148) #4
  %150 = trunc i64 %149 to i32
  store i32 %150, i32* %6, align 4
  %151 = load i32, i32* %6, align 4
  %152 = load i32, i32* %3, align 4
  %153 = sext i32 %152 to i64
  %154 = getelementptr inbounds [200 x i32], [200 x i32]* %7, i64 0, i64 %153
  %155 = load i32, i32* %154, align 4
  %156 = icmp eq i32 %151, %155
  br i1 %156, label %157, label %163

157:                                              ; preds = %144
  %158 = load i32, i32* %4, align 4
  %159 = sext i32 %158 to i64
  %160 = getelementptr inbounds [200 x [25 x i8]], [200 x [25 x i8]]* %2, i64 0, i64 %159
  %161 = getelementptr inbounds [25 x i8], [25 x i8]* %160, i64 0, i64 0
  %162 = call i32 (i8*, ...) @printf(i8* getelementptr inbounds ([4 x i8], [4 x i8]* @.str, i64 0, i64 0), i8* %161)
  br label %167

163:                                              ; preds = %144
  br label %164

164:                                              ; preds = %163
  %165 = load i32, i32* %4, align 4
  %166 = add nsw i32 %165, 1
  store i32 %166, i32* %4, align 4
  br label %144

167:                                              ; preds = %157
  store i32 0, i32* %3, align 4
  br label %168

168:                                              ; preds = %205, %167
  %169 = load i32, i32* %3, align 4
  %170 = add nsw i32 %169, 1
  %171 = sext i32 %170 to i64
  %172 = getelementptr inbounds [200 x i32], [200 x i32]* %7, i64 0, i64 %171
  %173 = load i32, i32* %172, align 4
  %174 = icmp ne i32 %173, 0
  br i1 %174, label %175, label %208

175:                                              ; preds = %168
  %176 = load i32, i32* %3, align 4
  %177 = sext i32 %176 to i64
  %178 = getelementptr inbounds [200 x i32], [200 x i32]* %7, i64 0, i64 %177
  %179 = load i32, i32* %178, align 4
  %180 = load i32, i32* %3, align 4
  %181 = add nsw i32 %180, 1
  %182 = sext i32 %181 to i64
  %183 = getelementptr inbounds [200 x i32], [200 x i32]* %7, i64 0, i64 %182
  %184 = load i32, i32* %183, align 4
  %185 = icmp slt i32 %179, %184
  br i1 %185, label %186, label %204

186:                                              ; preds = %175
  %187 = load i32, i32* %3, align 4
  %188 = sext i32 %187 to i64
  %189 = getelementptr inbounds [200 x i32], [200 x i32]* %7, i64 0, i64 %188
  %190 = load i32, i32* %189, align 4
  store i32 %190, i32* %6, align 4
  %191 = load i32, i32* %3, align 4
  %192 = add nsw i32 %191, 1
  %193 = sext i32 %192 to i64
  %194 = getelementptr inbounds [200 x i32], [200 x i32]* %7, i64 0, i64 %193
  %195 = load i32, i32* %194, align 4
  %196 = load i32, i32* %3, align 4
  %197 = sext i32 %196 to i64
  %198 = getelementptr inbounds [200 x i32], [200 x i32]* %7, i64 0, i64 %197
  store i32 %195, i32* %198, align 4
  %199 = load i32, i32* %6, align 4
  %200 = load i32, i32* %3, align 4
  %201 = add nsw i32 %200, 1
  %202 = sext i32 %201 to i64
  %203 = getelementptr inbounds [200 x i32], [200 x i32]* %7, i64 0, i64 %202
  store i32 %199, i32* %203, align 4
  br label %204

204:                                              ; preds = %186, %175
  br label %205

205:                                              ; preds = %204
  %206 = load i32, i32* %3, align 4
  %207 = add nsw i32 %206, 1
  store i32 %207, i32* %3, align 4
  br label %168

208:                                              ; preds = %168
  store i32 0, i32* %4, align 4
  br label %209

209:                                              ; preds = %229, %208
  %210 = load i32, i32* %4, align 4
  %211 = sext i32 %210 to i64
  %212 = getelementptr inbounds [200 x [25 x i8]], [200 x [25 x i8]]* %2, i64 0, i64 %211
  %213 = getelementptr inbounds [25 x i8], [25 x i8]* %212, i64 0, i64 0
  %214 = call i64 @strlen(i8* %213) #4
  %215 = trunc i64 %214 to i32
  store i32 %215, i32* %6, align 4
  %216 = load i32, i32* %6, align 4
  %217 = load i32, i32* %3, align 4
  %218 = sext i32 %217 to i64
  %219 = getelementptr inbounds [200 x i32], [200 x i32]* %7, i64 0, i64 %218
  %220 = load i32, i32* %219, align 4
  %221 = icmp eq i32 %216, %220
  br i1 %221, label %222, label %228

222:                                              ; preds = %209
  %223 = load i32, i32* %4, align 4
  %224 = sext i32 %223 to i64
  %225 = getelementptr inbounds [200 x [25 x i8]], [200 x [25 x i8]]* %2, i64 0, i64 %224
  %226 = getelementptr inbounds [25 x i8], [25 x i8]* %225, i64 0, i64 0
  %227 = call i32 (i8*, ...) @printf(i8* getelementptr inbounds ([4 x i8], [4 x i8]* @.str, i64 0, i64 0), i8* %226)
  br label %232

228:                                              ; preds = %209
  br label %229

229:                                              ; preds = %228
  %230 = load i32, i32* %4, align 4
  %231 = add nsw i32 %230, 1
  store i32 %231, i32* %4, align 4
  br label %209

232:                                              ; preds = %222
  ret void
}

; Function Attrs: argmemonly nounwind willreturn
declare void @llvm.memset.p0i8.i64(i8* nocapture writeonly, i8, i64, i1 immarg) #1

declare dso_local i32 @gets(...) #2

; Function Attrs: nounwind readonly
declare dso_local i64 @strlen(i8*) #3

declare dso_local i32 @printf(i8*, ...) #2


!llvm.module.flags = !{!0}
!llvm.ident = !{!1}

!0 = !{i32 1, !"wchar_size", i32 4}
!1 = !{!"clang version 10.0.0-4ubuntu1 "}
